; ModuleID = 'source-C-CXX/24/1098.cpp'
source_filename = "source-C-CXX/24/1098.cpp"
target datalayout = "e-m:e-p270:32:32-p271:32:32-p272:64:64-i64:64-f80:128-n8:16:32:64-S128"
target triple = "x86_64-pc-linux-gnu"

%"class.std::ios_base::Init" = type { i8 }
%"class.std::basic_istream" = type { i32 (...)**, i64, %"class.std::basic_ios" }
%"class.std::basic_ios" = type { %"class.std::ios_base", %"class.std::basic_ostream"*, i8, i8, %"class.std::basic_streambuf"*, %"class.std::ctype"*, %"class.std::num_put"*, %"class.std::num_get"* }
%"class.std::ios_base" = type { i32 (...)**, i64, i64, i32, i32, i32, %"struct.std::ios_base::_Callback_list"*, %"struct.std::ios_base::_Words", [8 x %"struct.std::ios_base::_Words"], i32, %"struct.std::ios_base::_Words"*, %"class.std::locale" }
%"struct.std::ios_base::_Callback_list" = type { %"struct.std::ios_base::_Callback_list"*, void (i32, %"class.std::ios_base"*, i32)*, i32, i32 }
%"struct.std::ios_base::_Words" = type { i8*, i64 }
%"class.std::locale" = type { %"class.std::locale::_Impl"* }
%"class.std::locale::_Impl" = type { i32, %"class.std::locale::facet"**, i64, %"class.std::locale::facet"**, i8** }
%"class.std::locale::facet" = type <{ i32 (...)**, i32, [4 x i8] }>
%"class.std::basic_ostream" = type { i32 (...)**, %"class.std::basic_ios" }
%"class.std::basic_streambuf" = type { i32 (...)**, i8*, i8*, i8*, i8*, i8*, i8*, %"class.std::locale" }
%"class.std::ctype" = type <{ %"class.std::locale::facet.base", [4 x i8], %struct.__locale_struct*, i8, [7 x i8], i32*, i32*, i16*, i8, [256 x i8], [256 x i8], i8, [6 x i8] }>
%"class.std::locale::facet.base" = type <{ i32 (...)**, i32 }>
%struct.__locale_struct = type { [13 x %struct.__locale_data*], i16*, i32*, i32*, [13 x i8*] }
%struct.__locale_data = type opaque
%"class.std::num_put" = type { %"class.std::locale::facet.base", [4 x i8] }
%"class.std::num_get" = type { %"class.std::locale::facet.base", [4 x i8] }

@_ZStL8__ioinit = internal global %"class.std::ios_base::Init" zeroinitializer, align 1
@__dso_handle = external hidden global i8
@result = dso_local local_unnamed_addr global [100 x i32] zeroinitializer, align 16
@_ZSt3cin = external global %"class.std::basic_istream", align 8
@_ZSt4cout = external global %"class.std::basic_ostream", align 8
@llvm.global_ctors = appending global [1 x { i32, void ()*, i8* }] [{ i32, void ()*, i8* } { i32 65535, void ()* @_GLOBAL__sub_I_1098.cpp, i8* null }]

declare void @_ZNSt8ios_base4InitC1Ev(%"class.std::ios_base::Init"* nonnull align 1 dereferenceable(1)) unnamed_addr #0

; Function Attrs: nounwind
declare void @_ZNSt8ios_base4InitD1Ev(%"class.std::ios_base::Init"* nonnull align 1 dereferenceable(1)) unnamed_addr #1

; Function Attrs: nofree nounwind
declare i32 @__cxa_atexit(void (i8*)*, i8*, i8*) local_unnamed_addr #2

; Function Attrs: mustprogress norecurse sspstrong uwtable
define dso_local i32 @main() local_unnamed_addr #3 {
  %1 = alloca i32, align 4
  %2 = bitcast i32* %1 to i8*
  call void @llvm.lifetime.start.p0i8(i64 4, i8* nonnull %2) #7
  %3 = call nonnull align 8 dereferenceable(16) %"class.std::basic_istream"* @_ZNSirsERi(%"class.std::basic_istream"* nonnull align 8 dereferenceable(16) @_ZSt3cin, i32* nonnull align 4 dereferenceable(4) %1)
  call void @llvm.memset.p0i8.i64(i8* noundef nonnull align 16 dereferenceable(400) bitcast ([100 x i32]* @result to i8*), i8 0, i64 400, i1 false)
  store i32 1, i32* getelementptr inbounds ([100 x i32], [100 x i32]* @result, i64 0, i64 0), align 16, !tbaa !5
  %4 = load i32, i32* %1, align 4, !tbaa !5
  %5 = icmp sgt i32 %4, 0
  br i1 %5, label %6, label %13

6:                                                ; preds = %0, %38
  %7 = phi i32 [ %40, %38 ], [ 0, %0 ]
  %8 = phi i32 [ %39, %38 ], [ 1, %0 ]
  %9 = phi i32 [ %41, %38 ], [ 0, %0 ]
  %10 = icmp sgt i32 %8, 0
  br i1 %10, label %16, label %38

11:                                               ; preds = %38
  %12 = icmp sgt i32 %39, 0
  br i1 %12, label %13, label %53

13:                                               ; preds = %0, %11
  %14 = phi i32 [ %39, %11 ], [ 1, %0 ]
  %15 = zext i32 %14 to i64
  br label %43

16:                                               ; preds = %6, %33
  %17 = phi i64 [ %35, %33 ], [ 0, %6 ]
  %18 = phi i32 [ %24, %33 ], [ %7, %6 ]
  %19 = phi i32 [ %34, %33 ], [ %8, %6 ]
  %20 = getelementptr inbounds [100 x i32], [100 x i32]* @result, i64 0, i64 %17
  %21 = load i32, i32* %20, align 4, !tbaa !5
  %22 = shl nsw i32 %21, 1
  %23 = add nsw i32 %22, %18
  store i32 %23, i32* %20, align 4, !tbaa !5
  %24 = sdiv i32 %23, 10
  %25 = icmp sgt i32 %23, 9
  br i1 %25, label %26, label %33

26:                                               ; preds = %16
  %27 = urem i32 %23, 10
  store i32 %27, i32* %20, align 4, !tbaa !5
  %28 = add nsw i32 %19, -1
  %29 = zext i32 %28 to i64
  %30 = icmp eq i64 %17, %29
  %31 = zext i1 %30 to i32
  %32 = add nsw i32 %19, %31
  br label %33

33:                                               ; preds = %26, %16
  %34 = phi i32 [ %19, %16 ], [ %32, %26 ]
  %35 = add nuw nsw i64 %17, 1
  %36 = sext i32 %34 to i64
  %37 = icmp slt i64 %35, %36
  br i1 %37, label %16, label %38, !llvm.loop !9

38:                                               ; preds = %33, %6
  %39 = phi i32 [ %8, %6 ], [ %34, %33 ]
  %40 = phi i32 [ %7, %6 ], [ %24, %33 ]
  %41 = add nuw nsw i32 %9, 1
  %42 = icmp eq i32 %41, %4
  br i1 %42, label %11, label %6, !llvm.loop !11

43:                                               ; preds = %13, %43
  %44 = phi i64 [ %15, %13 ], [ %52, %43 ]
  %45 = phi i32 [ %14, %13 ], [ %46, %43 ]
  %46 = add nsw i32 %45, -1
  %47 = zext i32 %46 to i64
  %48 = getelementptr inbounds [100 x i32], [100 x i32]* @result, i64 0, i64 %47
  %49 = load i32, i32* %48, align 4, !tbaa !5
  %50 = call nonnull align 8 dereferenceable(8) %"class.std::basic_ostream"* @_ZNSolsEi(%"class.std::basic_ostream"* nonnull align 8 dereferenceable(8) @_ZSt4cout, i32 %49)
  %51 = icmp sgt i64 %44, 1
  %52 = add nsw i64 %44, -1
  br i1 %51, label %43, label %53, !llvm.loop !12

53:                                               ; preds = %43, %11
  call void @llvm.lifetime.end.p0i8(i64 4, i8* nonnull %2) #7
  ret i32 0
}

; Function Attrs: argmemonly mustprogress nofree nosync nounwind willreturn
declare void @llvm.lifetime.start.p0i8(i64 immarg, i8* nocapture) #4

declare nonnull align 8 dereferenceable(16) %"class.std::basic_istream"* @_ZNSirsERi(%"class.std::basic_istream"* nonnull align 8 dereferenceable(16), i32* nonnull align 4 dereferenceable(4)) local_unnamed_addr #0

; Function Attrs: argmemonly mustprogress nofree nounwind willreturn writeonly
declare void @llvm.memset.p0i8.i64(i8* nocapture writeonly, i8, i64, i1 immarg) #5

declare nonnull align 8 dereferenceable(8) %"class.std::basic_ostream"* @_ZNSolsEi(%"class.std::basic_ostream"* nonnull align 8 dereferenceable(8), i32) local_unnamed_addr #0

; Function Attrs: argmemonly mustprogress nofree nosync nounwind willreturn
declare void @llvm.lifetime.end.p0i8(i64 immarg, i8* nocapture) #4

; Function Attrs: sspstrong uwtable
define internal void @_GLOBAL__sub_I_1098.cpp() #6 section ".text.startup" {
  tail call void @_ZNSt8ios_base4InitC1Ev(%"class.std::ios_base::Init"* nonnull align 1 dereferenceable(1) @_ZStL8__ioinit)
  %1 = tail call i32 @__cxa_atexit(void (i8*)* bitcast (void (%"class.std::ios_base::Init"*)* @_ZNSt8ios_base4InitD1Ev to void (i8*)*), i8* getelementptr inbounds (%"class.std::ios_base::Init", %"class.std::ios_base::Init"* @_ZStL8__ioinit, i64 0, i32 0), i8* nonnull @__dso_handle) #7
  ret void
}


!llvm.module.flags = !{!0, !1, !2, !3}
!llvm.ident = !{!4}

!0 = !{i32 1, !"wchar_size", i32 4}
!1 = !{i32 7, !"PIC Level", i32 2}
!2 = !{i32 7, !"PIE Level", i32 2}
!3 = !{i32 7, !"uwtable", i32 1}
!4 = !{!"clang version 13.0.0"}
!5 = !{!6, !6, i64 0}
!6 = !{!"int", !7, i64 0}
!7 = !{!"omnipotent char", !8, i64 0}
!8 = !{!"Simple C++ TBAA"}
!9 = distinct !{!9, !10}
!10 = !{!"llvm.loop.mustprogress"}
!11 = distinct !{!11, !10}
!12 = distinct !{!12, !10}
